
output:     file format elf32-littleriscv


Disassembly of section .data:

00000000 <.data>:
   0:	0000                	unimp
   2:	40a0                	lw	s0,64(s1)
   4:	0000                	unimp
   6:	3f80                	fld	fs0,56(a5)
   8:	0000                	unimp
   a:	42c8                	lw	a0,4(a3)

Disassembly of section .text:

00003000 <main>:
    3000:	fe010113          	addi	sp,sp,-32
    3004:	00812e23          	sw	s0,28(sp)
    3008:	02010413          	addi	s0,sp,32
    300c:	00002787          	flw	fa5,0(zero) # 0 <main-0x3000>
    3010:	fef42627          	fsw	fa5,-20(s0)
    3014:	00402787          	flw	fa5,4(zero) # 4 <main-0x2ffc>
    3018:	fef42427          	fsw	fa5,-24(s0)
    301c:	0140006f          	j	3030 <main+0x30>
    3020:	fec42707          	flw	fa4,-20(s0)
    3024:	00802787          	flw	fa5,8(zero) # 8 <main-0x2ff8>
    3028:	00f777d3          	fadd.s	fa5,fa4,fa5
    302c:	fef42627          	fsw	fa5,-20(s0)
    3030:	fe842707          	flw	fa4,-24(s0)
    3034:	00002787          	flw	fa5,0(zero) # 0 <main-0x3000>
    3038:	00f777d3          	fadd.s	fa5,fa4,fa5
    303c:	fef42427          	fsw	fa5,-24(s0)
    3040:	fe1ff06f          	j	3020 <main+0x20>

Disassembly of section .debug_info:

00000000 <.debug_info>:
   0:	007d                	c.nop	31
   2:	0000                	unimp
   4:	0004                	0x4
   6:	0000                	unimp
   8:	0000                	unimp
   a:	0104                	addi	s1,sp,128
   c:	0000006b          	0x6b
  10:	5a0c                	lw	a1,48(a2)
  12:	0000                	unimp
  14:	0600                	addi	s0,sp,768
  16:	0000                	unimp
  18:	0000                	unimp
  1a:	0030                	addi	a2,sp,8
  1c:	4400                	lw	s0,8(s0)
  1e:	0000                	unimp
  20:	0000                	unimp
  22:	0000                	unimp
  24:	0200                	addi	s0,sp,256
  26:	0066                	c.slli	zero,0x19
  28:	0000                	unimp
  2a:	0101                	addi	sp,sp,0
  2c:	7205                	lui	tp,0xfffe1
  2e:	0000                	unimp
  30:	0000                	unimp
  32:	0030                	addi	a2,sp,8
  34:	4400                	lw	s0,8(s0)
  36:	0000                	unimp
  38:	0100                	addi	s0,sp,128
  3a:	729c                	flw	fa5,32(a3)
  3c:	0000                	unimp
  3e:	0300                	addi	s0,sp,384
  40:	0061                	c.nop	24
  42:	0201                	addi	tp,tp,0
  44:	7908                	flw	fa0,48(a0)
  46:	0000                	unimp
  48:	0200                	addi	s0,sp,256
  4a:	6c91                	lui	s9,0x4
  4c:	01006203          	0x1006203
  50:	00790803          	lb	a6,7(s2)
  54:	0000                	unimp
  56:	9102                	jalr	sp
  58:	0468                	addi	a0,sp,524
  5a:	0054                	addi	a3,sp,4
  5c:	0000                	unimp
  5e:	0901                	addi	s2,s2,0
  60:	3002                	fld	ft0,32(sp)
  62:	0030                	addi	a2,sp,8
  64:	0400                	addi	s0,sp,512
  66:	00b4                	addi	a3,sp,72
  68:	0000                	unimp
  6a:	0601                	addi	a2,a2,0
  6c:	2002                	fld	ft0,0(sp)
  6e:	0030                	addi	a2,sp,8
  70:	0000                	unimp
  72:	0405                	addi	s0,s0,1
  74:	6905                	lui	s2,0x1
  76:	746e                	flw	fs0,248(sp)
  78:	0600                	addi	s0,sp,768
  7a:	0404                	addi	s1,sp,512
  7c:	0000                	unimp
  7e:	0000                	unimp
	...

Disassembly of section .debug_abbrev:

00000000 <.debug_abbrev>:
   0:	1101                	addi	sp,sp,-32
   2:	2501                	jal	602 <main-0x29fe>
   4:	130e                	slli	t1,t1,0x23
   6:	1b0e030b          	0x1b0e030b
   a:	110e                	slli	sp,sp,0x23
   c:	1201                	addi	tp,tp,-32
   e:	1006                	c.slli	zero,0x21
  10:	02000017          	auipc	zero,0x2000
  14:	012e                	slli	sp,sp,0xb
  16:	0e03193f 0b3b0b3a 	0xb3b0b3a0e03193f
  1e:	0b39                	addi	s6,s6,14
  20:	1349                	addi	t1,t1,-14
  22:	0111                	addi	sp,sp,4
  24:	0612                	slli	a2,a2,0x4
  26:	1840                	addi	s0,sp,52
  28:	01194297          	auipc	t0,0x1194
  2c:	03000013          	li	zero,48
  30:	0034                	addi	a3,sp,8
  32:	0b3a0803          	lb	a6,179(s4)
  36:	0b390b3b          	0xb390b3b
  3a:	1349                	addi	t1,t1,-14
  3c:	1802                	slli	a6,a6,0x20
  3e:	0000                	unimp
  40:	0a04                	addi	s1,sp,272
  42:	0300                	addi	s0,sp,384
  44:	3a0e                	fld	fs4,224(sp)
  46:	390b3b0b          	0x390b3b0b
  4a:	0001110b          	0x1110b
  4e:	0500                	addi	s0,sp,640
  50:	0024                	addi	s1,sp,8
  52:	0b3e0b0b          	0xb3e0b0b
  56:	00000803          	lb	a6,0(zero) # 0 <main-0x3000>
  5a:	2406                	fld	fs0,64(sp)
  5c:	0b00                	addi	s0,sp,400
  5e:	030b3e0b          	0x30b3e0b
  62:	000e                	c.slli	zero,0x3
	...

Disassembly of section .debug_aranges:

00000000 <.debug_aranges>:
   0:	001c                	0x1c
   2:	0000                	unimp
   4:	0002                	c.slli64	zero
   6:	0000                	unimp
   8:	0000                	unimp
   a:	0004                	0x4
   c:	0000                	unimp
   e:	0000                	unimp
  10:	3000                	fld	fs0,32(s0)
  12:	0000                	unimp
  14:	0044                	addi	s1,sp,4
	...

Disassembly of section .debug_line:

00000000 <.debug_line>:
   0:	0064                	addi	s1,sp,12
   2:	0000                	unimp
   4:	00220003          	lb	zero,2(tp) # fffe1002 <_end+0xfffddfbe>
   8:	0000                	unimp
   a:	0101                	addi	sp,sp,0
   c:	000d0efb          	0xd0efb
  10:	0101                	addi	sp,sp,0
  12:	0101                	addi	sp,sp,0
  14:	0000                	unimp
  16:	0100                	addi	s0,sp,128
  18:	0000                	unimp
  1a:	0001                	nop
  1c:	754a                	flw	fa0,176(sp)
  1e:	706d                	c.lui	zero,0xffffb
  20:	705f 6f72 2e67      	0x2e676f72705f
  26:	00000063          	beqz	zero,26 <main-0x2fda>
  2a:	0000                	unimp
  2c:	0b05                	addi	s6,s6,1
  2e:	0500                	addi	s0,sp,640
  30:	0002                	c.slli64	zero
  32:	0030                	addi	a2,sp,8
  34:	0100                	addi	s0,sp,128
  36:	0805                	addi	a6,a6,1
  38:	0c090103          	lb	sp,192(s2) # 10c0 <main-0x1f40>
  3c:	0100                	addi	s0,sp,128
  3e:	08090103          	lb	sp,128(s2)
  42:	0100                	addi	s0,sp,128
  44:	0205                	addi	tp,tp,1
  46:	08090203          	lb	tp,128(s2)
  4a:	0100                	addi	s0,sp,128
  4c:	0405                	addi	s0,s0,1
  4e:	04090203          	lb	tp,64(s2)
  52:	0100                	addi	s0,sp,128
  54:	10090303          	lb	t1,256(s2)
  58:	0100                	addi	s0,sp,128
  5a:	0205                	addi	tp,tp,1
  5c:	10090103          	lb	sp,256(s2)
  60:	0100                	addi	s0,sp,128
  62:	0409                	addi	s0,s0,2
  64:	0000                	unimp
  66:	0101                	addi	sp,sp,0

Disassembly of section .debug_str:

00000000 <.debug_str>:
   0:	6c66                	flw	fs8,88(sp)
   2:	0074616f          	jal	sp,46808 <_end+0x437c4>
   6:	6e75722f          	0x6e75722f
   a:	64656d2f          	0x64656d2f
   e:	6169                	addi	sp,sp,208
  10:	6475732f          	0x6475732f
  14:	6168                	flw	fa0,68(a0)
  16:	2f72                	fld	ft10,280(sp)
  18:	2d44                	fld	fs1,152(a0)
  1a:	7244                	flw	fs1,36(a2)
  1c:	7669                	lui	a2,0xffffa
  1e:	2f65                	jal	7d6 <main-0x282a>
  20:	64697053          	0x64697053
  24:	7265                	lui	tp,0xffff9
  26:	534c562f          	0x534c562f
  2a:	2f49                	jal	7bc <main-0x2844>
  2c:	5652                	lw	a2,52(sp)
  2e:	4d493233          	0x4d493233
  32:	4720                	lw	s0,72(a4)
  34:	554e                	lw	a0,240(sp)
  36:	5420                	lw	s0,104(s0)
  38:	636c6f6f          	jal	t5,c666e <_end+0xc362a>
  3c:	6168                	flw	fa0,68(a0)
  3e:	6e69                	lui	t3,0x1a
  40:	6d61532f          	0x6d61532f
  44:	6c70                	flw	fa2,92(s0)
  46:	2f65                	jal	7fe <main-0x2802>
  48:	5652                	lw	a2,52(sp)
  4a:	46493233          	0x46493233
  4e:	6d754a2f          	0x6d754a2f
  52:	0070                	addi	a2,sp,12
  54:	616c                	flw	fa1,68(a0)
  56:	6574                	flw	fa3,76(a0)
  58:	0072                	c.slli	zero,0x1c
  5a:	754a                	flw	fa0,176(sp)
  5c:	706d                	c.lui	zero,0xffffb
  5e:	705f 6f72 2e67      	0x2e676f72705f
  64:	616d0063          	beq	s10,s6,664 <main-0x299c>
  68:	6e69                	lui	t3,0x1a
  6a:	4700                	lw	s0,8(a4)
  6c:	554e                	lw	a0,240(sp)
  6e:	4320                	lw	s0,64(a4)
  70:	3731                	jal	ffffff7c <_end+0xffffcf38>
  72:	3120                	fld	fs0,96(a0)
  74:	2e30                	fld	fa2,88(a2)
  76:	2e32                	fld	ft8,264(sp)
  78:	2030                	fld	fa2,64(s0)
  7a:	6d2d                	lui	s10,0xb
  7c:	7574                	flw	fa3,108(a0)
  7e:	656e                	flw	fa0,216(sp)
  80:	723d                	lui	tp,0xfffef
  82:	656b636f          	jal	t1,b66d8 <_end+0xb3694>
  86:	2074                	fld	fa3,192(s0)
  88:	6d2d                	lui	s10,0xb
  8a:	7261                	lui	tp,0xffff8
  8c:	723d6863          	bltu	s10,gp,7bc <main-0x2844>
  90:	3376                	fld	ft6,376(sp)
  92:	6932                	flw	fs2,12(sp)
  94:	2066                	fld	ft0,88(sp)
  96:	6d2d                	lui	s10,0xb
  98:	6261                	lui	tp,0x18
  9a:	3d69                	jal	ffffff34 <_end+0xffffcef0>
  9c:	6c69                	lui	s8,0x1a
  9e:	3370                	fld	fa2,224(a4)
  a0:	6632                	flw	fa2,12(sp)
  a2:	2d20                	fld	fs0,88(a0)
  a4:	616d                	addi	sp,sp,240
  a6:	6372                	flw	ft6,28(sp)
  a8:	3d68                	fld	fa0,248(a0)
  aa:	7672                	flw	fa2,60(sp)
  ac:	66693233          	0x66693233
  b0:	2d20                	fld	fs0,88(a0)
  b2:	65680067          	jr	1622(a6)
  b6:	6572                	flw	fa0,28(sp)
	...

Disassembly of section .comment:

00000000 <.comment>:
   0:	3a434347          	fmsub.d	ft6,ft6,ft4,ft7,rmm
   4:	2820                	fld	fs0,80(s0)
   6:	29554e47          	fmsub.s	ft8,fa0,fs5,ft5,rmm
   a:	3120                	fld	fs0,96(a0)
   c:	2e30                	fld	fa2,88(a2)
   e:	2e32                	fld	ft8,264(sp)
  10:	0030                	addi	a2,sp,8

Disassembly of section .riscv.attributes:

00000000 <.riscv.attributes>:
   0:	2041                	jal	80 <main-0x2f80>
   2:	0000                	unimp
   4:	7200                	flw	fs0,32(a2)
   6:	7369                	lui	t1,0xffffa
   8:	01007663          	bgeu	zero,a6,14 <main-0x2fec>
   c:	0016                	c.slli	zero,0x5
   e:	0000                	unimp
  10:	1004                	addi	s1,sp,32
  12:	7205                	lui	tp,0xfffe1
  14:	3376                	fld	ft6,376(sp)
  16:	6932                	flw	fs2,12(sp)
  18:	7032                	flw	ft0,44(sp)
  1a:	5f30                	lw	a2,120(a4)
  1c:	3266                	fld	ft4,120(sp)
  1e:	3070                	fld	fa2,224(s0)
	...

Disassembly of section .debug_frame:

00000000 <.debug_frame>:
   0:	000c                	0xc
   2:	0000                	unimp
   4:	ffff                	0xffff
   6:	ffff                	0xffff
   8:	7c010003          	lb	zero,1984(sp)
   c:	0d01                	addi	s10,s10,0
   e:	0002                	c.slli64	zero
  10:	0018                	0x18
  12:	0000                	unimp
  14:	0000                	unimp
  16:	0000                	unimp
  18:	3000                	fld	fs0,32(s0)
  1a:	0000                	unimp
  1c:	0044                	addi	s1,sp,4
  1e:	0000                	unimp
  20:	0e44                	addi	s1,sp,788
  22:	4420                	lw	s0,72(s0)
  24:	0188                	addi	a0,sp,192
  26:	0c44                	addi	s1,sp,532
  28:	0008                	0x8
	...
