
output:     file format elf32-littleriscv


Disassembly of section .text:

00010074 <register_fini>:
   10074:	00000793          	li	a5,0
   10078:	00078863          	beqz	a5,10088 <register_fini+0x14>
   1007c:	00010537          	lui	a0,0x10
   10080:	48450513          	addi	a0,a0,1156 # 10484 <__libc_fini_array>
   10084:	3ec0006f          	j	10470 <atexit>
   10088:	00008067          	ret

0001008c <_start>:
   1008c:	00002197          	auipc	gp,0x2
   10090:	d4418193          	addi	gp,gp,-700 # 11dd0 <__global_pointer$>
   10094:	c3418513          	addi	a0,gp,-972 # 11a04 <completed.1>
   10098:	c5018613          	addi	a2,gp,-944 # 11a20 <__BSS_END__>
   1009c:	40a60633          	sub	a2,a2,a0
   100a0:	00000593          	li	a1,0
   100a4:	1d0000ef          	jal	ra,10274 <memset>
   100a8:	00000517          	auipc	a0,0x0
   100ac:	3c850513          	addi	a0,a0,968 # 10470 <atexit>
   100b0:	00050863          	beqz	a0,100c0 <_start+0x34>
   100b4:	00000517          	auipc	a0,0x0
   100b8:	3d050513          	addi	a0,a0,976 # 10484 <__libc_fini_array>
   100bc:	3b4000ef          	jal	ra,10470 <atexit>
   100c0:	118000ef          	jal	ra,101d8 <__libc_init_array>
   100c4:	00012503          	lw	a0,0(sp)
   100c8:	00410593          	addi	a1,sp,4
   100cc:	00000613          	li	a2,0
   100d0:	074000ef          	jal	ra,10144 <main>
   100d4:	0d40006f          	j	101a8 <exit>

000100d8 <__do_global_dtors_aux>:
   100d8:	c341c703          	lbu	a4,-972(gp) # 11a04 <completed.1>
   100dc:	04071263          	bnez	a4,10120 <__do_global_dtors_aux+0x48>
   100e0:	ff010113          	addi	sp,sp,-16
   100e4:	00812423          	sw	s0,8(sp)
   100e8:	00078413          	mv	s0,a5
   100ec:	00112623          	sw	ra,12(sp)
   100f0:	00000793          	li	a5,0
   100f4:	00078a63          	beqz	a5,10108 <__do_global_dtors_aux+0x30>
   100f8:	00011537          	lui	a0,0x11
   100fc:	5bc50513          	addi	a0,a0,1468 # 115bc <__FRAME_END__>
   10100:	00000097          	auipc	ra,0x0
   10104:	000000e7          	jalr	zero # 0 <register_fini-0x10074>
   10108:	00100793          	li	a5,1
   1010c:	00c12083          	lw	ra,12(sp)
   10110:	c2f18a23          	sb	a5,-972(gp) # 11a04 <completed.1>
   10114:	00812403          	lw	s0,8(sp)
   10118:	01010113          	addi	sp,sp,16
   1011c:	00008067          	ret
   10120:	00008067          	ret

00010124 <frame_dummy>:
   10124:	00000793          	li	a5,0
   10128:	00078c63          	beqz	a5,10140 <frame_dummy+0x1c>
   1012c:	00011537          	lui	a0,0x11
   10130:	c3818593          	addi	a1,gp,-968 # 11a08 <object.0>
   10134:	5bc50513          	addi	a0,a0,1468 # 115bc <__FRAME_END__>
   10138:	00000317          	auipc	t1,0x0
   1013c:	00000067          	jr	zero # 0 <register_fini-0x10074>
   10140:	00008067          	ret

00010144 <main>:
   10144:	fe010113          	addi	sp,sp,-32
   10148:	00812e23          	sw	s0,28(sp)
   1014c:	02010413          	addi	s0,sp,32
   10150:	000107b7          	lui	a5,0x10
   10154:	5b07a787          	flw	fa5,1456(a5) # 105b0 <__errno+0x8>
   10158:	fef42627          	fsw	fa5,-20(s0)
   1015c:	000107b7          	lui	a5,0x10
   10160:	5b47a787          	flw	fa5,1460(a5) # 105b4 <__errno+0xc>
   10164:	fef42427          	fsw	fa5,-24(s0)
   10168:	000107b7          	lui	a5,0x10
   1016c:	5b87a787          	flw	fa5,1464(a5) # 105b8 <__errno+0x10>
   10170:	fef42227          	fsw	fa5,-28(s0)
   10174:	fec42707          	flw	fa4,-20(s0)
   10178:	fe842787          	flw	fa5,-24(s0)
   1017c:	00f777d3          	fadd.s	fa5,fa4,fa5
   10180:	fef42027          	fsw	fa5,-32(s0)
   10184:	fe442707          	flw	fa4,-28(s0)
   10188:	fe042787          	flw	fa5,-32(s0)
   1018c:	08f777d3          	fsub.s	fa5,fa4,fa5
   10190:	fef42227          	fsw	fa5,-28(s0)
   10194:	00000793          	li	a5,0
   10198:	00078513          	mv	a0,a5
   1019c:	01c12403          	lw	s0,28(sp)
   101a0:	02010113          	addi	sp,sp,32
   101a4:	00008067          	ret

000101a8 <exit>:
   101a8:	ff010113          	addi	sp,sp,-16
   101ac:	00000593          	li	a1,0
   101b0:	00812423          	sw	s0,8(sp)
   101b4:	00112623          	sw	ra,12(sp)
   101b8:	00050413          	mv	s0,a0
   101bc:	194000ef          	jal	ra,10350 <__call_exitprocs>
   101c0:	c281a503          	lw	a0,-984(gp) # 119f8 <_global_impure_ptr>
   101c4:	03c52783          	lw	a5,60(a0)
   101c8:	00078463          	beqz	a5,101d0 <exit+0x28>
   101cc:	000780e7          	jalr	a5
   101d0:	00040513          	mv	a0,s0
   101d4:	3a4000ef          	jal	ra,10578 <_exit>

000101d8 <__libc_init_array>:
   101d8:	ff010113          	addi	sp,sp,-16
   101dc:	00812423          	sw	s0,8(sp)
   101e0:	01212023          	sw	s2,0(sp)
   101e4:	00011437          	lui	s0,0x11
   101e8:	00011937          	lui	s2,0x11
   101ec:	5c040793          	addi	a5,s0,1472 # 115c0 <__init_array_start>
   101f0:	5c090913          	addi	s2,s2,1472 # 115c0 <__init_array_start>
   101f4:	40f90933          	sub	s2,s2,a5
   101f8:	00112623          	sw	ra,12(sp)
   101fc:	00912223          	sw	s1,4(sp)
   10200:	40295913          	srai	s2,s2,0x2
   10204:	02090063          	beqz	s2,10224 <__libc_init_array+0x4c>
   10208:	5c040413          	addi	s0,s0,1472
   1020c:	00000493          	li	s1,0
   10210:	00042783          	lw	a5,0(s0)
   10214:	00148493          	addi	s1,s1,1
   10218:	00440413          	addi	s0,s0,4
   1021c:	000780e7          	jalr	a5
   10220:	fe9918e3          	bne	s2,s1,10210 <__libc_init_array+0x38>
   10224:	00011437          	lui	s0,0x11
   10228:	00011937          	lui	s2,0x11
   1022c:	5c040793          	addi	a5,s0,1472 # 115c0 <__init_array_start>
   10230:	5c890913          	addi	s2,s2,1480 # 115c8 <__do_global_dtors_aux_fini_array_entry>
   10234:	40f90933          	sub	s2,s2,a5
   10238:	40295913          	srai	s2,s2,0x2
   1023c:	02090063          	beqz	s2,1025c <__libc_init_array+0x84>
   10240:	5c040413          	addi	s0,s0,1472
   10244:	00000493          	li	s1,0
   10248:	00042783          	lw	a5,0(s0)
   1024c:	00148493          	addi	s1,s1,1
   10250:	00440413          	addi	s0,s0,4
   10254:	000780e7          	jalr	a5
   10258:	fe9918e3          	bne	s2,s1,10248 <__libc_init_array+0x70>
   1025c:	00c12083          	lw	ra,12(sp)
   10260:	00812403          	lw	s0,8(sp)
   10264:	00412483          	lw	s1,4(sp)
   10268:	00012903          	lw	s2,0(sp)
   1026c:	01010113          	addi	sp,sp,16
   10270:	00008067          	ret

00010274 <memset>:
   10274:	00f00313          	li	t1,15
   10278:	00050713          	mv	a4,a0
   1027c:	02c37e63          	bgeu	t1,a2,102b8 <memset+0x44>
   10280:	00f77793          	andi	a5,a4,15
   10284:	0a079063          	bnez	a5,10324 <memset+0xb0>
   10288:	08059263          	bnez	a1,1030c <memset+0x98>
   1028c:	ff067693          	andi	a3,a2,-16
   10290:	00f67613          	andi	a2,a2,15
   10294:	00e686b3          	add	a3,a3,a4
   10298:	00b72023          	sw	a1,0(a4)
   1029c:	00b72223          	sw	a1,4(a4)
   102a0:	00b72423          	sw	a1,8(a4)
   102a4:	00b72623          	sw	a1,12(a4)
   102a8:	01070713          	addi	a4,a4,16
   102ac:	fed766e3          	bltu	a4,a3,10298 <memset+0x24>
   102b0:	00061463          	bnez	a2,102b8 <memset+0x44>
   102b4:	00008067          	ret
   102b8:	40c306b3          	sub	a3,t1,a2
   102bc:	00269693          	slli	a3,a3,0x2
   102c0:	00000297          	auipc	t0,0x0
   102c4:	005686b3          	add	a3,a3,t0
   102c8:	00c68067          	jr	12(a3)
   102cc:	00b70723          	sb	a1,14(a4)
   102d0:	00b706a3          	sb	a1,13(a4)
   102d4:	00b70623          	sb	a1,12(a4)
   102d8:	00b705a3          	sb	a1,11(a4)
   102dc:	00b70523          	sb	a1,10(a4)
   102e0:	00b704a3          	sb	a1,9(a4)
   102e4:	00b70423          	sb	a1,8(a4)
   102e8:	00b703a3          	sb	a1,7(a4)
   102ec:	00b70323          	sb	a1,6(a4)
   102f0:	00b702a3          	sb	a1,5(a4)
   102f4:	00b70223          	sb	a1,4(a4)
   102f8:	00b701a3          	sb	a1,3(a4)
   102fc:	00b70123          	sb	a1,2(a4)
   10300:	00b700a3          	sb	a1,1(a4)
   10304:	00b70023          	sb	a1,0(a4)
   10308:	00008067          	ret
   1030c:	0ff5f593          	andi	a1,a1,255
   10310:	00859693          	slli	a3,a1,0x8
   10314:	00d5e5b3          	or	a1,a1,a3
   10318:	01059693          	slli	a3,a1,0x10
   1031c:	00d5e5b3          	or	a1,a1,a3
   10320:	f6dff06f          	j	1028c <memset+0x18>
   10324:	00279693          	slli	a3,a5,0x2
   10328:	00000297          	auipc	t0,0x0
   1032c:	005686b3          	add	a3,a3,t0
   10330:	00008293          	mv	t0,ra
   10334:	fa0680e7          	jalr	-96(a3)
   10338:	00028093          	mv	ra,t0
   1033c:	ff078793          	addi	a5,a5,-16
   10340:	40f70733          	sub	a4,a4,a5
   10344:	00f60633          	add	a2,a2,a5
   10348:	f6c378e3          	bgeu	t1,a2,102b8 <memset+0x44>
   1034c:	f3dff06f          	j	10288 <memset+0x14>

00010350 <__call_exitprocs>:
   10350:	fd010113          	addi	sp,sp,-48
   10354:	01412c23          	sw	s4,24(sp)
   10358:	c281aa03          	lw	s4,-984(gp) # 119f8 <_global_impure_ptr>
   1035c:	03212023          	sw	s2,32(sp)
   10360:	02112623          	sw	ra,44(sp)
   10364:	148a2903          	lw	s2,328(s4)
   10368:	02812423          	sw	s0,40(sp)
   1036c:	02912223          	sw	s1,36(sp)
   10370:	01312e23          	sw	s3,28(sp)
   10374:	01512a23          	sw	s5,20(sp)
   10378:	01612823          	sw	s6,16(sp)
   1037c:	01712623          	sw	s7,12(sp)
   10380:	01812423          	sw	s8,8(sp)
   10384:	04090063          	beqz	s2,103c4 <__call_exitprocs+0x74>
   10388:	00050b13          	mv	s6,a0
   1038c:	00058b93          	mv	s7,a1
   10390:	00100a93          	li	s5,1
   10394:	fff00993          	li	s3,-1
   10398:	00492483          	lw	s1,4(s2)
   1039c:	fff48413          	addi	s0,s1,-1
   103a0:	02044263          	bltz	s0,103c4 <__call_exitprocs+0x74>
   103a4:	00249493          	slli	s1,s1,0x2
   103a8:	009904b3          	add	s1,s2,s1
   103ac:	040b8463          	beqz	s7,103f4 <__call_exitprocs+0xa4>
   103b0:	1044a783          	lw	a5,260(s1)
   103b4:	05778063          	beq	a5,s7,103f4 <__call_exitprocs+0xa4>
   103b8:	fff40413          	addi	s0,s0,-1
   103bc:	ffc48493          	addi	s1,s1,-4
   103c0:	ff3416e3          	bne	s0,s3,103ac <__call_exitprocs+0x5c>
   103c4:	02c12083          	lw	ra,44(sp)
   103c8:	02812403          	lw	s0,40(sp)
   103cc:	02412483          	lw	s1,36(sp)
   103d0:	02012903          	lw	s2,32(sp)
   103d4:	01c12983          	lw	s3,28(sp)
   103d8:	01812a03          	lw	s4,24(sp)
   103dc:	01412a83          	lw	s5,20(sp)
   103e0:	01012b03          	lw	s6,16(sp)
   103e4:	00c12b83          	lw	s7,12(sp)
   103e8:	00812c03          	lw	s8,8(sp)
   103ec:	03010113          	addi	sp,sp,48
   103f0:	00008067          	ret
   103f4:	00492783          	lw	a5,4(s2)
   103f8:	0044a683          	lw	a3,4(s1)
   103fc:	fff78793          	addi	a5,a5,-1
   10400:	04878e63          	beq	a5,s0,1045c <__call_exitprocs+0x10c>
   10404:	0004a223          	sw	zero,4(s1)
   10408:	fa0688e3          	beqz	a3,103b8 <__call_exitprocs+0x68>
   1040c:	18892783          	lw	a5,392(s2)
   10410:	008a9733          	sll	a4,s5,s0
   10414:	00492c03          	lw	s8,4(s2)
   10418:	00f777b3          	and	a5,a4,a5
   1041c:	02079263          	bnez	a5,10440 <__call_exitprocs+0xf0>
   10420:	000680e7          	jalr	a3
   10424:	00492703          	lw	a4,4(s2)
   10428:	148a2783          	lw	a5,328(s4)
   1042c:	01871463          	bne	a4,s8,10434 <__call_exitprocs+0xe4>
   10430:	f92784e3          	beq	a5,s2,103b8 <__call_exitprocs+0x68>
   10434:	f80788e3          	beqz	a5,103c4 <__call_exitprocs+0x74>
   10438:	00078913          	mv	s2,a5
   1043c:	f5dff06f          	j	10398 <__call_exitprocs+0x48>
   10440:	18c92783          	lw	a5,396(s2)
   10444:	0844a583          	lw	a1,132(s1)
   10448:	00f77733          	and	a4,a4,a5
   1044c:	00071c63          	bnez	a4,10464 <__call_exitprocs+0x114>
   10450:	000b0513          	mv	a0,s6
   10454:	000680e7          	jalr	a3
   10458:	fcdff06f          	j	10424 <__call_exitprocs+0xd4>
   1045c:	00892223          	sw	s0,4(s2)
   10460:	fa9ff06f          	j	10408 <__call_exitprocs+0xb8>
   10464:	00058513          	mv	a0,a1
   10468:	000680e7          	jalr	a3
   1046c:	fb9ff06f          	j	10424 <__call_exitprocs+0xd4>

00010470 <atexit>:
   10470:	00050593          	mv	a1,a0
   10474:	00000693          	li	a3,0
   10478:	00000613          	li	a2,0
   1047c:	00000513          	li	a0,0
   10480:	0600006f          	j	104e0 <__register_exitproc>

00010484 <__libc_fini_array>:
   10484:	ff010113          	addi	sp,sp,-16
   10488:	00812423          	sw	s0,8(sp)
   1048c:	000117b7          	lui	a5,0x11
   10490:	00011437          	lui	s0,0x11
   10494:	5c840413          	addi	s0,s0,1480 # 115c8 <__do_global_dtors_aux_fini_array_entry>
   10498:	5cc78793          	addi	a5,a5,1484 # 115cc <__fini_array_end>
   1049c:	408787b3          	sub	a5,a5,s0
   104a0:	00912223          	sw	s1,4(sp)
   104a4:	00112623          	sw	ra,12(sp)
   104a8:	4027d493          	srai	s1,a5,0x2
   104ac:	02048063          	beqz	s1,104cc <__libc_fini_array+0x48>
   104b0:	ffc78793          	addi	a5,a5,-4
   104b4:	00878433          	add	s0,a5,s0
   104b8:	00042783          	lw	a5,0(s0)
   104bc:	fff48493          	addi	s1,s1,-1
   104c0:	ffc40413          	addi	s0,s0,-4
   104c4:	000780e7          	jalr	a5
   104c8:	fe0498e3          	bnez	s1,104b8 <__libc_fini_array+0x34>
   104cc:	00c12083          	lw	ra,12(sp)
   104d0:	00812403          	lw	s0,8(sp)
   104d4:	00412483          	lw	s1,4(sp)
   104d8:	01010113          	addi	sp,sp,16
   104dc:	00008067          	ret

000104e0 <__register_exitproc>:
   104e0:	c281a703          	lw	a4,-984(gp) # 119f8 <_global_impure_ptr>
   104e4:	14872783          	lw	a5,328(a4)
   104e8:	04078c63          	beqz	a5,10540 <__register_exitproc+0x60>
   104ec:	0047a703          	lw	a4,4(a5)
   104f0:	01f00813          	li	a6,31
   104f4:	06e84e63          	blt	a6,a4,10570 <__register_exitproc+0x90>
   104f8:	00271813          	slli	a6,a4,0x2
   104fc:	02050663          	beqz	a0,10528 <__register_exitproc+0x48>
   10500:	01078333          	add	t1,a5,a6
   10504:	08c32423          	sw	a2,136(t1) # 101c0 <exit+0x18>
   10508:	1887a883          	lw	a7,392(a5)
   1050c:	00100613          	li	a2,1
   10510:	00e61633          	sll	a2,a2,a4
   10514:	00c8e8b3          	or	a7,a7,a2
   10518:	1917a423          	sw	a7,392(a5)
   1051c:	10d32423          	sw	a3,264(t1)
   10520:	00200693          	li	a3,2
   10524:	02d50463          	beq	a0,a3,1054c <__register_exitproc+0x6c>
   10528:	00170713          	addi	a4,a4,1
   1052c:	00e7a223          	sw	a4,4(a5)
   10530:	010787b3          	add	a5,a5,a6
   10534:	00b7a423          	sw	a1,8(a5)
   10538:	00000513          	li	a0,0
   1053c:	00008067          	ret
   10540:	14c70793          	addi	a5,a4,332
   10544:	14f72423          	sw	a5,328(a4)
   10548:	fa5ff06f          	j	104ec <__register_exitproc+0xc>
   1054c:	18c7a683          	lw	a3,396(a5)
   10550:	00170713          	addi	a4,a4,1
   10554:	00e7a223          	sw	a4,4(a5)
   10558:	00c6e633          	or	a2,a3,a2
   1055c:	18c7a623          	sw	a2,396(a5)
   10560:	010787b3          	add	a5,a5,a6
   10564:	00b7a423          	sw	a1,8(a5)
   10568:	00000513          	li	a0,0
   1056c:	00008067          	ret
   10570:	fff00513          	li	a0,-1
   10574:	00008067          	ret

00010578 <_exit>:
   10578:	05d00893          	li	a7,93
   1057c:	00000073          	ecall
   10580:	00054463          	bltz	a0,10588 <_exit+0x10>
   10584:	0000006f          	j	10584 <_exit+0xc>
   10588:	ff010113          	addi	sp,sp,-16
   1058c:	00812423          	sw	s0,8(sp)
   10590:	00050413          	mv	s0,a0
   10594:	00112623          	sw	ra,12(sp)
   10598:	40800433          	neg	s0,s0
   1059c:	00c000ef          	jal	ra,105a8 <__errno>
   105a0:	00852023          	sw	s0,0(a0)
   105a4:	0000006f          	j	105a4 <_exit+0x2c>

000105a8 <__errno>:
   105a8:	c301a503          	lw	a0,-976(gp) # 11a00 <_impure_ptr>
   105ac:	00008067          	ret

Disassembly of section .rodata:

000105b0 <.rodata>:
   105b0:	0666                	slli	a2,a2,0x19
   105b2:	447a                	lw	s0,156(sp)
   105b4:	0000                	unimp
   105b6:	4060                	lw	s0,68(s0)
   105b8:	0000                	unimp
   105ba:	4120                	lw	s0,64(a0)

Disassembly of section .eh_frame:

000115bc <__FRAME_END__>:
   115bc:	0000                	unimp
	...

Disassembly of section .init_array:

000115c0 <__init_array_start>:
   115c0:	0074                	addi	a3,sp,12
   115c2:	0001                	nop

000115c4 <__frame_dummy_init_array_entry>:
   115c4:	0124                	addi	s1,sp,136
   115c6:	0001                	nop

Disassembly of section .fini_array:

000115c8 <__do_global_dtors_aux_fini_array_entry>:
   115c8:	00d8                	addi	a4,sp,68
   115ca:	0001                	nop

Disassembly of section .data:

000115d0 <impure_data>:
   115d0:	0000                	unimp
   115d2:	0000                	unimp
   115d4:	18bc                	addi	a5,sp,120
   115d6:	0001                	nop
   115d8:	1924                	addi	s1,sp,184
   115da:	0001                	nop
   115dc:	198c                	addi	a1,sp,240
   115de:	0001                	nop
	...
   11678:	0001                	nop
   1167a:	0000                	unimp
   1167c:	0000                	unimp
   1167e:	0000                	unimp
   11680:	330e                	fld	ft6,224(sp)
   11682:	abcd                	j	11c74 <__BSS_END__+0x254>
   11684:	1234                	addi	a3,sp,296
   11686:	e66d                	bnez	a2,11770 <impure_data+0x1a0>
   11688:	deec                	sw	a1,124(a3)
   1168a:	0005                	c.nop	1
   1168c:	0000000b          	0xb
	...

Disassembly of section .sdata:

000119f8 <_global_impure_ptr>:
   119f8:	15d0                	addi	a2,sp,740
   119fa:	0001                	nop

000119fc <__dso_handle>:
   119fc:	0000                	unimp
	...

00011a00 <_impure_ptr>:
   11a00:	15d0                	addi	a2,sp,740
   11a02:	0001                	nop

Disassembly of section .bss:

00011a04 <completed.1>:
   11a04:	0000                	unimp
	...

00011a08 <object.0>:
	...

Disassembly of section .comment:

00000000 <.comment>:
   0:	3a434347          	fmsub.d	ft6,ft6,ft4,ft7,rmm
   4:	2820                	fld	fs0,80(s0)
   6:	29554e47          	fmsub.s	ft8,fa0,fs5,ft5,rmm
   a:	3120                	fld	fs0,96(a0)
   c:	2e30                	fld	fa2,88(a2)
   e:	2e32                	fld	ft8,264(sp)
  10:	0030                	addi	a2,sp,8

Disassembly of section .riscv.attributes:

00000000 <.riscv.attributes>:
   0:	2041                	jal	80 <register_fini-0xfff4>
   2:	0000                	unimp
   4:	7200                	flw	fs0,32(a2)
   6:	7369                	lui	t1,0xffffa
   8:	01007663          	bgeu	zero,a6,14 <register_fini-0x10060>
   c:	0016                	c.slli	zero,0x5
   e:	0000                	unimp
  10:	1004                	addi	s1,sp,32
  12:	7205                	lui	tp,0xfffe1
  14:	3376                	fld	ft6,376(sp)
  16:	6932                	flw	fs2,12(sp)
  18:	7032                	flw	ft0,44(sp)
  1a:	5f30                	lw	a2,120(a4)
  1c:	3266                	fld	ft4,120(sp)
  1e:	3070                	fld	fa2,224(s0)
	...

Disassembly of section .debug_aranges:

00000000 <.debug_aranges>:
   0:	001c                	0x1c
   2:	0000                	unimp
   4:	0002                	c.slli64	zero
   6:	0000                	unimp
   8:	0000                	unimp
   a:	0004                	0x4
   c:	0000                	unimp
   e:	0000                	unimp
  10:	0144                	addi	s1,sp,132
  12:	0001                	nop
  14:	0064                	addi	s1,sp,12
	...

Disassembly of section .debug_info:

00000000 <.debug_info>:
   0:	007f                	0x7f
   2:	0000                	unimp
   4:	0004                	0x4
   6:	0000                	unimp
   8:	0000                	unimp
   a:	0104                	addi	s1,sp,128
   c:	005f 0000 000c      	0xc0000005f
  12:	0000                	unimp
  14:	0700                	addi	s0,sp,896
  16:	0000                	unimp
  18:	4400                	lw	s0,8(s0)
  1a:	0101                	addi	sp,sp,0
  1c:	6400                	flw	fs0,8(s0)
  1e:	0000                	unimp
  20:	0000                	unimp
  22:	0000                	unimp
  24:	0200                	addi	s0,sp,256
  26:	005a                	c.slli	zero,0x16
  28:	0000                	unimp
  2a:	0201                	addi	tp,tp,0
  2c:	7405                	lui	s0,0xfffe1
  2e:	0000                	unimp
  30:	4400                	lw	s0,8(s0)
  32:	0101                	addi	sp,sp,0
  34:	6400                	flw	fs0,8(s0)
  36:	0000                	unimp
  38:	0100                	addi	s0,sp,128
  3a:	749c                	flw	fa5,40(s1)
  3c:	0000                	unimp
  3e:	0300                	addi	s0,sp,384
  40:	0061                	c.nop	24
  42:	0301                	addi	t1,t1,0
  44:	00007b0f          	0x7b0f
  48:	0200                	addi	s0,sp,256
  4a:	6c91                	lui	s9,0x4
  4c:	01006203          	0x1006203
  50:	007b1903          	lh	s2,7(s6)
  54:	0000                	unimp
  56:	9102                	jalr	sp
  58:	0368                	addi	a0,sp,396
  5a:	04010063          	beqz	sp,9a <register_fini-0xffda>
  5e:	00007b0f          	0x7b0f
  62:	0200                	addi	s0,sp,256
  64:	6091                	lui	ra,0x4
  66:	01006403          	0x1006403
  6a:	1204                	addi	s1,sp,288
  6c:	0000007b          	0x7b
  70:	9102                	jalr	sp
  72:	0064                	addi	s1,sp,12
  74:	0404                	addi	s1,sp,512
  76:	6905                	lui	s2,0x1
  78:	746e                	flw	fs0,248(sp)
  7a:	0500                	addi	s0,sp,640
  7c:	0404                	addi	s1,sp,512
  7e:	0054                	addi	a3,sp,4
  80:	0000                	unimp
	...

Disassembly of section .debug_abbrev:

00000000 <.debug_abbrev>:
   0:	1101                	addi	sp,sp,-32
   2:	2501                	jal	602 <register_fini-0xfa72>
   4:	130e                	slli	t1,t1,0x23
   6:	1b0e030b          	0x1b0e030b
   a:	110e                	slli	sp,sp,0x23
   c:	1201                	addi	tp,tp,-32
   e:	1006                	c.slli	zero,0x21
  10:	02000017          	auipc	zero,0x2000
  14:	012e                	slli	sp,sp,0xb
  16:	0e03193f 0b3b0b3a 	0xb3b0b3a0e03193f
  1e:	0b39                	addi	s6,s6,14
  20:	1349                	addi	t1,t1,-14
  22:	0111                	addi	sp,sp,4
  24:	0612                	slli	a2,a2,0x4
  26:	1840                	addi	s0,sp,52
  28:	01194297          	auipc	t0,0x1194
  2c:	03000013          	li	zero,48
  30:	0034                	addi	a3,sp,8
  32:	0b3a0803          	lb	a6,179(s4)
  36:	0b390b3b          	0xb390b3b
  3a:	1349                	addi	t1,t1,-14
  3c:	1802                	slli	a6,a6,0x20
  3e:	0000                	unimp
  40:	2404                	fld	fs1,8(s0)
  42:	0b00                	addi	s0,sp,400
  44:	030b3e0b          	0x30b3e0b
  48:	0008                	0x8
  4a:	0500                	addi	s0,sp,640
  4c:	0024                	addi	s1,sp,8
  4e:	0b3e0b0b          	0xb3e0b0b
  52:	00000e03          	lb	t3,0(zero) # 0 <register_fini-0x10074>
	...

Disassembly of section .debug_line:

00000000 <.debug_line>:
   0:	00000063          	beqz	zero,0 <register_fini-0x10074>
   4:	001d0003          	lb	zero,1(s10)
   8:	0000                	unimp
   a:	0101                	addi	sp,sp,0
   c:	000d0efb          	0xd0efb
  10:	0101                	addi	sp,sp,0
  12:	0101                	addi	sp,sp,0
  14:	0000                	unimp
  16:	0100                	addi	s0,sp,128
  18:	0000                	unimp
  1a:	0001                	nop
  1c:	7270                	flw	fa2,100(a2)
  1e:	632e676f          	jal	a4,e6650 <__global_pointer$+0xd4880>
  22:	0000                	unimp
  24:	0000                	unimp
  26:	0500                	addi	s0,sp,640
  28:	000c                	0xc
  2a:	0205                	addi	tp,tp,1
  2c:	0144                	addi	s1,sp,132
  2e:	0001                	nop
  30:	030f0513          	addi	a0,t5,48
  34:	0901                	addi	s2,s2,0
  36:	000c                	0xc
  38:	0501                	addi	a0,a0,0
  3a:	0319                	addi	t1,t1,6
  3c:	0900                	addi	s0,sp,144
  3e:	000c                	0xc
  40:	0501                	addi	a0,a0,0
  42:	0312                	slli	t1,t1,0x4
  44:	0901                	addi	s2,s2,0
  46:	000c                	0xc
  48:	0501                	addi	a0,a0,0
  4a:	0901030b          	0x901030b
  4e:	000c                	0xc
  50:	0501                	addi	a0,a0,0
  52:	030a                	slli	t1,t1,0x2
  54:	0901                	addi	s2,s2,0
  56:	0010                	0x10
  58:	0501                	addi	a0,a0,0
  5a:	0301                	addi	t1,t1,0
  5c:	0901                	addi	s2,s2,0
  5e:	0014                	0x14
  60:	0901                	addi	s2,s2,0
  62:	0010                	0x10
  64:	0100                	addi	s0,sp,128
  66:	01              	Address 0x0000000000000066 is out of bounds.


Disassembly of section .debug_frame:

00000000 <.debug_frame>:
   0:	000c                	0xc
   2:	0000                	unimp
   4:	ffff                	0xffff
   6:	ffff                	0xffff
   8:	7c010003          	lb	zero,1984(sp)
   c:	0d01                	addi	s10,s10,0
   e:	0002                	c.slli64	zero
  10:	0020                	addi	s0,sp,8
  12:	0000                	unimp
  14:	0000                	unimp
  16:	0000                	unimp
  18:	0144                	addi	s1,sp,132
  1a:	0001                	nop
  1c:	0064                	addi	s1,sp,12
  1e:	0000                	unimp
  20:	0e44                	addi	s1,sp,788
  22:	4420                	lw	s0,72(s0)
  24:	0188                	addi	a0,sp,192
  26:	0c44                	addi	s1,sp,532
  28:	0008                	0x8
  2a:	5002                	0x5002
  2c:	0cc8                	addi	a0,sp,596
  2e:	2002                	fld	ft0,0(sp)
  30:	0e44                	addi	s1,sp,788
	...

Disassembly of section .debug_str:

00000000 <.debug_str>:
   0:	7270                	flw	fa2,100(a2)
   2:	632e676f          	jal	a4,e6634 <__global_pointer$+0xd4864>
   6:	2f00                	fld	fs0,24(a4)
   8:	7572                	flw	fa0,60(sp)
   a:	2f6e                	fld	ft10,216(sp)
   c:	656d                	lui	a0,0x1b
   e:	6964                	flw	fs1,84(a0)
  10:	2f61                	jal	7a8 <register_fini-0xf8cc>
  12:	68647573          	csrrci	a0,0x686,8
  16:	7261                	lui	tp,0xffff8
  18:	442d442f          	0x442d442f
  1c:	6972                	flw	fs2,28(sp)
  1e:	6576                	flw	fa0,92(sp)
  20:	6970532f          	0x6970532f
  24:	6564                	flw	fs1,76(a0)
  26:	2f72                	fld	ft10,280(sp)
  28:	4c56                	lw	s8,84(sp)
  2a:	522f4953          	0x522f4953
  2e:	3356                	fld	ft6,368(sp)
  30:	4932                	lw	s2,12(sp)
  32:	204d                	jal	d4 <register_fini-0xffa0>
  34:	20554e47          	fmsub.s	ft8,fa0,ft5,ft4,rmm
  38:	6f54                	flw	fa3,28(a4)
  3a:	68636c6f          	jal	s8,366c0 <__global_pointer$+0x248f0>
  3e:	6961                	lui	s2,0x18
  40:	2f6e                	fld	ft10,216(sp)
  42:	706d6153          	0x706d6153
  46:	656c                	flw	fa1,76(a0)
  48:	3356522f          	0x3356522f
  4c:	4932                	lw	s2,12(sp)
  4e:	2f46                	fld	ft10,80(sp)
  50:	6441                	lui	s0,0x10
  52:	0064                	addi	s1,sp,12
  54:	6c66                	flw	fs8,88(sp)
  56:	0074616f          	jal	sp,4685c <__global_pointer$+0x34a8c>
  5a:	616d                	addi	sp,sp,240
  5c:	6e69                	lui	t3,0x1a
  5e:	4700                	lw	s0,8(a4)
  60:	554e                	lw	a0,240(sp)
  62:	4320                	lw	s0,64(a4)
  64:	3731                	jal	ffffff70 <__global_pointer$+0xfffee1a0>
  66:	3120                	fld	fs0,96(a0)
  68:	2e30                	fld	fa2,88(a2)
  6a:	2e32                	fld	ft8,264(sp)
  6c:	2030                	fld	fa2,64(s0)
  6e:	6d2d                	lui	s10,0xb
  70:	7574                	flw	fa3,108(a0)
  72:	656e                	flw	fa0,216(sp)
  74:	723d                	lui	tp,0xfffef
  76:	656b636f          	jal	t1,b66cc <__global_pointer$+0xa48fc>
  7a:	2074                	fld	fa3,192(s0)
  7c:	6d2d                	lui	s10,0xb
  7e:	7261                	lui	tp,0xffff8
  80:	723d6863          	bltu	s10,gp,7b0 <register_fini-0xf8c4>
  84:	3376                	fld	ft6,376(sp)
  86:	6932                	flw	fs2,12(sp)
  88:	2066                	fld	ft0,88(sp)
  8a:	6d2d                	lui	s10,0xb
  8c:	6261                	lui	tp,0x18
  8e:	3d69                	jal	ffffff28 <__global_pointer$+0xfffee158>
  90:	6c69                	lui	s8,0x1a
  92:	3370                	fld	fa2,224(a4)
  94:	6632                	flw	fa2,12(sp)
  96:	2d20                	fld	fs0,88(a0)
  98:	616d                	addi	sp,sp,240
  9a:	6372                	flw	ft6,28(sp)
  9c:	3d68                	fld	fa0,248(a0)
  9e:	7672                	flw	fa2,60(sp)
  a0:	66693233          	0x66693233
  a4:	2d20                	fld	fs0,88(a0)
  a6:	          	jr	zero # 0 <register_fini-0x10074>
